target datalayout = "e-m:e-p270:32:32-p271:32:32-p272:64:64-i64:64-i128:128-f80:128-n8:16:32:64-S128"
target triple = "x86_64-pc-linux-gnu"

%struct.AVChannelLayout = type { i32, i32, %union.anon, ptr }
%union.anon = type { i64 }
%struct.AVFormatContext = type { ptr, ptr, ptr, ptr, ptr, i32, i32, ptr, i32, ptr, i32, ptr, ptr, i64, i64, i64, i32, i32, i32, i64, i64, ptr, i32, i32, ptr, i32, i32, i32, i32, ptr, i64, i32, i32, %struct.AVIOInterruptCB, i32, i32, i32, i32, i64, i32, i32, i32, i32, i32, i32, i32, i32, i32, i32, i32, i32, i64, i32, i32, i32, i32, i32, ptr, ptr, ptr, ptr, i32, ptr, ptr, ptr, ptr, i32, ptr, ptr, i64, ptr, ptr, ptr, i64 }
%struct.AVIOInterruptCB = type { ptr, ptr }
%struct.AVStream = type { ptr, i32, i32, ptr, ptr, %struct.AVRational, i64, i64, i64, i32, i32, %struct.AVRational, ptr, %struct.AVRational, %struct.AVPacket, i32, %struct.AVRational, i32 }
%struct.AVPacket = type { ptr, i64, i64, ptr, i32, i32, i32, ptr, i32, i64, i64, ptr, ptr, %struct.AVRational }
%struct.AVRational = type { i32, i32 }
%struct.AVCodecParameters = type { i32, i32, i32, ptr, i32, ptr, i32, i32, i64, i32, i32, i32, i32, i32, i32, %struct.AVRational, %struct.AVRational, i32, i32, i32, i32, i32, i32, i32, %struct.AVChannelLayout, i32, i32, i32, i32, i32, i32 }
%struct.AVIOContext = type { ptr, ptr, i32, ptr, ptr, ptr, ptr, ptr, ptr, i64, i32, i32, i32, i32, i32, i64, ptr, ptr, ptr, ptr, i32, i32, ptr, ptr, ptr, i32, ptr, i64, i64 }

; Function Attrs: nounwind uwtable
define internal i32 @svs_read_header(ptr noundef %0) #0 {
  %2 = alloca i32, align 4
  %3 = alloca ptr, align 8
  %4 = alloca ptr, align 8
  %5 = alloca i32, align 4
  %6 = alloca i32, align 4
  %7 = alloca %struct.AVChannelLayout, align 8
  store ptr %0, ptr %3, align 8, !tbaa !15
  call void @llvm.lifetime.start.p0(i64 8, ptr %4) #7
  call void @llvm.lifetime.start.p0(i64 4, ptr %5) #7
  %8 = load ptr, ptr %3, align 8, !tbaa !15
  %9 = call ptr @avformat_new_stream(ptr noundef %8, ptr noundef null)
  store ptr %9, ptr %4, align 8, !tbaa !17
  %10 = load ptr, ptr %4, align 8, !tbaa !17
  %11 = icmp ne ptr %10, null
  br i1 %11, label %13, label %12

12:                                               ; preds = %1
  store i32 -12, ptr %2, align 4
  store i32 1, ptr %6, align 4
  br label %84

13:                                               ; preds = %1
  %14 = load ptr, ptr %3, align 8, !tbaa !15
  %15 = getelementptr inbounds nuw %struct.AVFormatContext, ptr %14, i32 0, i32 4
  %16 = load ptr, ptr %15, align 8, !tbaa !19
  %17 = call i64 @avio_skip(ptr noundef %16, i64 noundef 16)
  %18 = load ptr, ptr %3, align 8, !tbaa !15
  %19 = getelementptr inbounds nuw %struct.AVFormatContext, ptr %18, i32 0, i32 4
  %20 = load ptr, ptr %19, align 8, !tbaa !19
  %21 = call i32 @avio_rl32(ptr noundef %20)
  store i32 %21, ptr %5, align 4, !tbaa !34
  %22 = load ptr, ptr %3, align 8, !tbaa !15
  %23 = getelementptr inbounds nuw %struct.AVFormatContext, ptr %22, i32 0, i32 4
  %24 = load ptr, ptr %23, align 8, !tbaa !19
  %25 = call i64 @avio_skip(ptr noundef %24, i64 noundef 12)
  %26 = load ptr, ptr %4, align 8, !tbaa !17
  %27 = getelementptr inbounds nuw %struct.AVStream, ptr %26, i32 0, i32 3
  %28 = load ptr, ptr %27, align 8, !tbaa !35
  %29 = getelementptr inbounds nuw %struct.AVCodecParameters, ptr %28, i32 0, i32 0
  store i32 1, ptr %29, align 8, !tbaa !42
  %30 = load ptr, ptr %4, align 8, !tbaa !17
  %31 = getelementptr inbounds nuw %struct.AVStream, ptr %30, i32 0, i32 3
  %32 = load ptr, ptr %31, align 8, !tbaa !35
  %33 = getelementptr inbounds nuw %struct.AVCodecParameters, ptr %32, i32 0, i32 1
  store i32 69669, ptr %33, align 4, !tbaa !45
  %34 = load ptr, ptr %4, align 8, !tbaa !17
  %35 = getelementptr inbounds nuw %struct.AVStream, ptr %34, i32 0, i32 3
  %36 = load ptr, ptr %35, align 8, !tbaa !35
  %37 = getelementptr inbounds nuw %struct.AVCodecParameters, ptr %36, i32 0, i32 24
  %38 = getelementptr inbounds nuw %struct.AVChannelLayout, ptr %7, i32 0, i32 0
  store i32 1, ptr %38, align 8, !tbaa !46
  %39 = getelementptr inbounds nuw %struct.AVChannelLayout, ptr %7, i32 0, i32 1
  store i32 2, ptr %39, align 4, !tbaa !47
  %40 = getelementptr inbounds nuw %struct.AVChannelLayout, ptr %7, i32 0, i32 2
  store i64 3, ptr %40, align 8, !tbaa !14
  %41 = getelementptr inbounds nuw %struct.AVChannelLayout, ptr %7, i32 0, i32 3
  store ptr null, ptr %41, align 8, !tbaa !48
  call void @llvm.memcpy.p0.p0.i64(ptr align 8 %37, ptr align 8 %7, i64 24, i1 false), !tbaa.struct !49
  %42 = load i32, ptr %5, align 4, !tbaa !34
  %43 = zext i32 %42 to i64
  %44 = call i64 @av_rescale_rnd(i64 noundef %43, i64 noundef 48000, i64 noundef 4096, i32 noundef 1) #8
  %45 = trunc i64 %44 to i32
  %46 = load ptr, ptr %4, align 8, !tbaa !17
  %47 = getelementptr inbounds nuw %struct.AVStream, ptr %46, i32 0, i32 3
  %48 = load ptr, ptr %47, align 8, !tbaa !35
  %49 = getelementptr inbounds nuw %struct.AVCodecParameters, ptr %48, i32 0, i32 25
  store i32 %45, ptr %49, align 8, !tbaa !51
  %50 = load ptr, ptr %4, align 8, !tbaa !17
  %51 = getelementptr inbounds nuw %struct.AVStream, ptr %50, i32 0, i32 3
  %52 = load ptr, ptr %51, align 8, !tbaa !35
  %53 = getelementptr inbounds nuw %struct.AVCodecParameters, ptr %52, i32 0, i32 26
  store i32 32, ptr %53, align 4, !tbaa !52
  %54 = load ptr, ptr %4, align 8, !tbaa !17
  %55 = getelementptr inbounds nuw %struct.AVStream, ptr %54, i32 0, i32 6
  store i64 0, ptr %55, align 8, !tbaa !53
  %56 = load ptr, ptr %3, align 8, !tbaa !15
  %57 = getelementptr inbounds nuw %struct.AVFormatContext, ptr %56, i32 0, i32 4
  %58 = load ptr, ptr %57, align 8, !tbaa !19
  %59 = getelementptr inbounds nuw %struct.AVIOContext, ptr %58, i32 0, i32 20
  %60 = load i32, ptr %59, align 8, !tbaa !54
  %61 = and i32 %60, 1
  %62 = icmp ne i32 %61, 0
  br i1 %62, label %63, label %77

63:                                               ; preds = %13
  %64 = load ptr, ptr %4, align 8, !tbaa !17
  %65 = getelementptr inbounds nuw %struct.AVStream, ptr %64, i32 0, i32 3
  %66 = load ptr, ptr %65, align 8, !tbaa !35
  %67 = load ptr, ptr %3, align 8, !tbaa !15
  %68 = getelementptr inbounds nuw %struct.AVFormatContext, ptr %67, i32 0, i32 4
  %69 = load ptr, ptr %68, align 8, !tbaa !19
  %70 = call i64 @avio_size(ptr noundef %69)
  %71 = sub nsw i64 %70, 32
  %72 = trunc i64 %71 to i32
  %73 = call i32 @av_get_audio_frame_duration2(ptr noundef %66, i32 noundef %72)
  %74 = sext i32 %73 to i64
  %75 = load ptr, ptr %4, align 8, !tbaa !17
  %76 = getelementptr inbounds nuw %struct.AVStream, ptr %75, i32 0, i32 7
  store i64 %74, ptr %76, align 8, !tbaa !56
  br label %77

77:                                               ; preds = %63, %13
  %78 = load ptr, ptr %4, align 8, !tbaa !17
  %79 = load ptr, ptr %4, align 8, !tbaa !17
  %80 = getelementptr inbounds nuw %struct.AVStream, ptr %79, i32 0, i32 3
  %81 = load ptr, ptr %80, align 8, !tbaa !35
  %82 = getelementptr inbounds nuw %struct.AVCodecParameters, ptr %81, i32 0, i32 25
  %83 = load i32, ptr %82, align 8, !tbaa !51
  call void @avpriv_set_pts_info(ptr noundef %78, i32 noundef 64, i32 noundef 1, i32 noundef %83)
  store i32 0, ptr %2, align 4
  store i32 1, ptr %6, align 4
  br label %84

84:                                               ; preds = %77, %12
  call void @llvm.lifetime.end.p0(i64 4, ptr %5) #7
  call void @llvm.lifetime.end.p0(i64 8, ptr %4) #7
  %85 = load i32, ptr %2, align 4
  ret i32 %85
}