; Function Attrs: nounwind uwtable
define internal range(i32 -12, 1) i32 @svs_read_header(ptr noundef %0) #1 {
  %2 = tail call ptr @avformat_new_stream(ptr noundef %0, ptr noundef null) #5
  %.not = icmp eq ptr %2, null
  br i1 %.not, label %35, label %3

3:                                                ; preds = %1
  %4 = getelementptr inbounds nuw i8, ptr %0, i64 32
  %5 = load ptr, ptr %4, align 8, !tbaa !13
  %6 = tail call i64 @avio_skip(ptr noundef %5, i64 noundef 16) #5
  %7 = load ptr, ptr %4, align 8, !tbaa !13
  %8 = tail call i32 @avio_rl32(ptr noundef %7) #5
  %9 = load ptr, ptr %4, align 8, !tbaa !13
  %10 = tail call i64 @avio_skip(ptr noundef %9, i64 noundef 12) #5
  %11 = getelementptr inbounds nuw i8, ptr %2, i64 16
  %12 = load ptr, ptr %11, align 8, !tbaa !28
  store i32 1, ptr %12, align 8, !tbaa !35
  %13 = getelementptr inbounds nuw i8, ptr %12, i64 4
  store i32 69669, ptr %13, align 4, !tbaa !38
  %14 = getelementptr inbounds nuw i8, ptr %12, i64 128
  store i32 1, ptr %14, align 8, !tbaa !39
  %.sroa.2.0..sroa_idx = getelementptr inbounds nuw i8, ptr %12, i64 132
  store i32 2, ptr %.sroa.2.0..sroa_idx, align 4, !tbaa !39
  %.sroa.3.0..sroa_idx = getelementptr inbounds nuw i8, ptr %12, i64 136
  store i64 3, ptr %.sroa.3.0..sroa_idx, align 8, !tbaa !12
  %.sroa.4.0..sroa_idx = getelementptr inbounds nuw i8, ptr %12, i64 144
  store ptr null, ptr %.sroa.4.0..sroa_idx, align 8, !tbaa !40
  %15 = zext i32 %8 to i64
  %16 = tail call i64 @av_rescale_rnd(i64 noundef %15, i64 noundef 48000, i64 noundef 4096, i32 noundef 1) #6
  %17 = trunc i64 %16 to i32
  %18 = load ptr, ptr %11, align 8, !tbaa !28
  %19 = getelementptr inbounds nuw i8, ptr %18, i64 152
  store i32 %17, ptr %19, align 8, !tbaa !41
  %20 = getelementptr inbounds nuw i8, ptr %18, i64 156
  store i32 32, ptr %20, align 4, !tbaa !42
  %21 = getelementptr inbounds nuw i8, ptr %2, i64 40
  store i64 0, ptr %21, align 8, !tbaa !43
  %22 = load ptr, ptr %4, align 8, !tbaa !13
  %23 = getelementptr inbounds nuw i8, ptr %22, i64 144
  %24 = load i32, ptr %23, align 8, !tbaa !44
  %25 = and i32 %24, 1
  %.not19 = icmp eq i32 %25, 0
  br i1 %.not19, label %33, label %26

26:                                               ; preds = %3
  %27 = tail call i64 @avio_size(ptr noundef nonnull %22) #5
  %28 = trunc i64 %27 to i32
  %29 = add i32 %28, -32
  %30 = tail call i32 @av_get_audio_frame_duration2(ptr noundef nonnull %18, i32 noundef %29) #5
  %31 = sext i32 %30 to i64
  %32 = getelementptr inbounds nuw i8, ptr %2, i64 48
  store i64 %31, ptr %32, align 8, !tbaa !46
  %.pre = load ptr, ptr %11, align 8, !tbaa !28
  %.phi.trans.insert = getelementptr inbounds nuw i8, ptr %.pre, i64 152
  %.pre20 = load i32, ptr %.phi.trans.insert, align 8, !tbaa !41
  br label %33

33:                                               ; preds = %26, %3
  %34 = phi i32 [ %.pre20, %26 ], [ %17, %3 ]
  tail call void @avpriv_set_pts_info(ptr noundef nonnull %2, i32 noundef 64, i32 noundef 1, i32 noundef %34) #5
  br label %35

35:                                               ; preds = %1, %33
  %.0 = phi i32 [ 0, %33 ], [ -12, %1 ]
  ret i32 %.0
}